target datalayout = "e-m:e-p270:32:32-p271:32:32-p272:64:64-i64:64-i128:128-f80:128-n8:16:32:64-S128"
target triple = "x86_64-pc-linux-gnu"

%struct._http_stats_t = type { ptr, ptr, ptr }

@.str.5 = private unnamed_addr constant [2 x i8] c"\0A\00", align 1
@.str.6 = private unnamed_addr constant [69 x i8] c"===================================================================\0A\00", align 1
@.str.7 = private unnamed_addr constant [17 x i8] c"HTTP Statistics\0A\00", align 1
@.str.8 = private unnamed_addr constant [32 x i8] c"HTTP Statistics with filter %s\0A\00", align 1
@.str.9 = private unnamed_addr constant [53 x i8] c"* HTTP Response Status Codes                Packets\0A\00", align 1
@.str.10 = private unnamed_addr constant [17 x i8] c"  %3d %-35s %9d\0A\00", align 1
@.str.11 = private unnamed_addr constant [53 x i8] c"* HTTP Request Methods                      Packets\0A\00", align 1
@.str.12 = private unnamed_addr constant [14 x i8] c"  %-39s %9d \0A\00", align 1

; Function Attrs: null_pointer_is_valid sspstrong uwtable
define internal void @httpstat_draw(ptr noundef %0) #0 {
  %2 = alloca ptr, align 8
  %3 = alloca ptr, align 8
  store ptr %0, ptr %2, align 8
  call void @llvm.lifetime.start.p0(i64 8, ptr %3) #10
  %4 = load ptr, ptr %2, align 8
  store ptr %4, ptr %3, align 8
  %5 = call i32 (i32, ptr, ...) @__printf_chk(i32 noundef 2, ptr noundef @.str.5)
  %6 = call i32 (i32, ptr, ...) @__printf_chk(i32 noundef 2, ptr noundef @.str.6)
  %7 = load ptr, ptr %3, align 8
  %8 = getelementptr inbounds nuw %struct._http_stats_t, ptr %7, i32 0, i32 0
  %9 = load ptr, ptr %8, align 8
  %10 = icmp ne ptr %9, null
  br i1 %10, label %11, label %18

11:                                               ; preds = %1
  %12 = load ptr, ptr %3, align 8
  %13 = getelementptr inbounds nuw %struct._http_stats_t, ptr %12, i32 0, i32 0
  %14 = load ptr, ptr %13, align 8
  %15 = getelementptr i8, ptr %14, i64 0
  %16 = load i8, ptr %15, align 1
  %17 = icmp ne i8 %16, 0
  br i1 %17, label %20, label %18

18:                                               ; preds = %11, %1
  %19 = call i32 (i32, ptr, ...) @__printf_chk(i32 noundef 2, ptr noundef @.str.7)
  br label %25

20:                                               ; preds = %11
  %21 = load ptr, ptr %3, align 8
  %22 = getelementptr inbounds nuw %struct._http_stats_t, ptr %21, i32 0, i32 0
  %23 = load ptr, ptr %22, align 8
  %24 = call i32 (i32, ptr, ...) @__printf_chk(i32 noundef 2, ptr noundef @.str.8, ptr noundef %23)
  br label %25

25:                                               ; preds = %20, %18
  %26 = call i32 (i32, ptr, ...) @__printf_chk(i32 noundef 2, ptr noundef @.str.9)
  %27 = load ptr, ptr %3, align 8
  %28 = getelementptr inbounds nuw %struct._http_stats_t, ptr %27, i32 0, i32 1
  %29 = load ptr, ptr %28, align 8
  call void @g_hash_table_foreach(ptr noundef %29, ptr noundef @http_draw_hash_responses, ptr noundef @.str.10)
  %30 = call i32 (i32, ptr, ...) @__printf_chk(i32 noundef 2, ptr noundef @.str.11)
  %31 = load ptr, ptr %3, align 8
  %32 = getelementptr inbounds nuw %struct._http_stats_t, ptr %31, i32 0, i32 2
  %33 = load ptr, ptr %32, align 8
  call void @g_hash_table_foreach(ptr noundef %33, ptr noundef @http_draw_hash_requests, ptr noundef @.str.12)
  %34 = call i32 (i32, ptr, ...) @__printf_chk(i32 noundef 2, ptr noundef @.str.6)
  call void @llvm.lifetime.end.p0(i64 8, ptr %3) #10
  ret void
}