; Function Attrs: null_pointer_is_valid sspstrong uwtable
define internal void @httpstat_draw(ptr noundef readonly captures(none) %0) #0 {
  %2 = tail call i32 (i32, ptr, ...) @__printf_chk(i32 noundef 2, ptr noundef nonnull @.str.5)
  %3 = tail call i32 (i32, ptr, ...) @__printf_chk(i32 noundef 2, ptr noundef nonnull @.str.6)
  %4 = load ptr, ptr %0, align 8
  %.not = icmp eq ptr %4, null
  br i1 %.not, label %7, label %5

5:                                                ; preds = %1
  %6 = load i8, ptr %4, align 1
  %.not6 = icmp eq i8 %6, 0
  br i1 %.not6, label %7, label %9

7:                                                ; preds = %5, %1
  %8 = tail call i32 (i32, ptr, ...) @__printf_chk(i32 noundef 2, ptr noundef nonnull @.str.7)
  br label %11

9:                                                ; preds = %5
  %10 = tail call i32 (i32, ptr, ...) @__printf_chk(i32 noundef 2, ptr noundef nonnull @.str.8, ptr noundef nonnull %4)
  br label %11

11:                                               ; preds = %9, %7
  %12 = tail call i32 (i32, ptr, ...) @__printf_chk(i32 noundef 2, ptr noundef nonnull @.str.9)
  %13 = getelementptr inbounds nuw i8, ptr %0, i64 8
  %14 = load ptr, ptr %13, align 8
  tail call void @g_hash_table_foreach(ptr noundef %14, ptr noundef nonnull @http_draw_hash_responses, ptr noundef nonnull @.str.10)
  %15 = tail call i32 (i32, ptr, ...) @__printf_chk(i32 noundef 2, ptr noundef nonnull @.str.11)
  %16 = getelementptr inbounds nuw i8, ptr %0, i64 16
  %17 = load ptr, ptr %16, align 8
  tail call void @g_hash_table_foreach(ptr noundef %17, ptr noundef nonnull @http_draw_hash_requests, ptr noundef nonnull @.str.12)
  %18 = tail call i32 (i32, ptr, ...) @__printf_chk(i32 noundef 2, ptr noundef nonnull @.str.6)
  ret void
}